target datalayout = "e-m:e-p270:32:32-p271:32:32-p272:64:64-i64:64-i128:128-f80:128-n8:16:32:64-S128"
target triple = "x86_64-pc-linux-gnu"

%struct.AVCodecContext = type { ptr, i32, i32, ptr, i32, i32, ptr, ptr, ptr, i64, i32, i32, ptr, i32, %struct.AVRational, %struct.AVRational, %struct.AVRational, i32, i32, i32, i32, i32, %struct.AVRational, i32, i32, i32, i32, i32, i32, i32, i32, i32, i32, i32, ptr, ptr, i32, float, float, float, float, float, float, float, float, float, i32, i32, i32, i32, i32, i32, i32, i32, i32, i32, i32, i32, ptr, ptr, ptr, i32, i32, i32, i32, i32, i32, i32, i32, i32, i32, %struct.AVChannelLayout, i32, i32, i32, i32, i32, i32, i32, i32, ptr, i32, i32, i32, float, float, i32, i32, i32, i32, i32, ptr, i64, i64, float, float, i32, i32, ptr, ptr, i32, i32, i32, i32, i32, ptr, ptr, ptr, ptr, i32, i32, [8 x i64], i32, i32, i32, i32, i32, i32, i32, ptr, ptr, i32, i32, i32, i32, i32, i32, i32, i32, i32, i32, ptr, ptr, i32, i32, ptr, ptr, ptr, ptr, i32, i32, i64, i32, i32, i64, ptr, i64, ptr, i32, ptr, i32 }
%struct.AVRational = type { i32, i32 }
%struct.AVChannelLayout = type { i32, i32, %union.anon.0, ptr }
%union.anon.0 = type { i64 }
%struct.BitpackedContext = type { ptr }

; Function Attrs: cold nounwind optsize uwtable
define internal i32 @bitpacked_init_decoder(ptr noundef %0) #0 {
  %2 = alloca i32, align 4
  %3 = alloca ptr, align 8
  %4 = alloca ptr, align 8
  %5 = alloca i32, align 4
  store ptr %0, ptr %3, align 8, !tbaa !4
  call void @llvm.lifetime.start.p0(i64 8, ptr %4) #4
  %6 = load ptr, ptr %3, align 8, !tbaa !4
  %7 = getelementptr inbounds nuw %struct.AVCodecContext, ptr %6, i32 0, i32 6
  %8 = load ptr, ptr %7, align 8, !tbaa !9
  store ptr %8, ptr %4, align 8, !tbaa !29
  %9 = load ptr, ptr %3, align 8, !tbaa !4
  %10 = getelementptr inbounds nuw %struct.AVCodecContext, ptr %9, i32 0, i32 5
  %11 = load i32, ptr %10, align 4, !tbaa !31
  %12 = icmp ne i32 %11, 0
  br i1 %12, label %13, label %23

13:                                               ; preds = %1
  %14 = load ptr, ptr %3, align 8, !tbaa !4
  %15 = getelementptr inbounds nuw %struct.AVCodecContext, ptr %14, i32 0, i32 18
  %16 = load i32, ptr %15, align 8, !tbaa !32
  %17 = icmp ne i32 %16, 0
  br i1 %17, label %18, label %23

18:                                               ; preds = %13
  %19 = load ptr, ptr %3, align 8, !tbaa !4
  %20 = getelementptr inbounds nuw %struct.AVCodecContext, ptr %19, i32 0, i32 19
  %21 = load i32, ptr %20, align 4, !tbaa !33
  %22 = icmp ne i32 %21, 0
  br i1 %22, label %24, label %23

23:                                               ; preds = %18, %13, %1
  store i32 -1094995529, ptr %2, align 4
  store i32 1, ptr %5, align 4
  br label %60

24:                                               ; preds = %18
  %25 = load ptr, ptr %3, align 8, !tbaa !4
  %26 = getelementptr inbounds nuw %struct.AVCodecContext, ptr %25, i32 0, i32 5
  %27 = load i32, ptr %26, align 4, !tbaa !31
  %28 = icmp eq i32 %27, 1498831189
  br i1 %28, label %29, label %58

29:                                               ; preds = %24
  %30 = load ptr, ptr %3, align 8, !tbaa !4
  %31 = getelementptr inbounds nuw %struct.AVCodecContext, ptr %30, i32 0, i32 114
  %32 = load i32, ptr %31, align 8, !tbaa !34
  %33 = icmp eq i32 %32, 16
  br i1 %33, label %34, label %42

34:                                               ; preds = %29
  %35 = load ptr, ptr %3, align 8, !tbaa !4
  %36 = getelementptr inbounds nuw %struct.AVCodecContext, ptr %35, i32 0, i32 23
  %37 = load i32, ptr %36, align 8, !tbaa !35
  %38 = icmp eq i32 %37, 15
  br i1 %38, label %39, label %42

39:                                               ; preds = %34
  %40 = load ptr, ptr %4, align 8, !tbaa !29
  %41 = getelementptr inbounds nuw %struct.BitpackedContext, ptr %40, i32 0, i32 0
  store ptr @bitpacked_decode_uyvy422, ptr %41, align 8, !tbaa !36
  br label %57

42:                                               ; preds = %34, %29
  %43 = load ptr, ptr %3, align 8, !tbaa !4
  %44 = getelementptr inbounds nuw %struct.AVCodecContext, ptr %43, i32 0, i32 114
  %45 = load i32, ptr %44, align 8, !tbaa !34
  %46 = icmp eq i32 %45, 20
  br i1 %46, label %47, label %55

47:                                               ; preds = %42
  %48 = load ptr, ptr %3, align 8, !tbaa !4
  %49 = getelementptr inbounds nuw %struct.AVCodecContext, ptr %48, i32 0, i32 23
  %50 = load i32, ptr %49, align 8, !tbaa !35
  %51 = icmp eq i32 %50, 64
  br i1 %51, label %52, label %55

52:                                               ; preds = %47
  %53 = load ptr, ptr %4, align 8, !tbaa !29
  %54 = getelementptr inbounds nuw %struct.BitpackedContext, ptr %53, i32 0, i32 0
  store ptr @bitpacked_decode_yuv422p10, ptr %54, align 8, !tbaa !36
  br label %56

55:                                               ; preds = %47, %42
  store i32 -1094995529, ptr %2, align 4
  store i32 1, ptr %5, align 4
  br label %60

56:                                               ; preds = %52
  br label %57

57:                                               ; preds = %56, %39
  br label %59

58:                                               ; preds = %24
  store i32 -1094995529, ptr %2, align 4
  store i32 1, ptr %5, align 4
  br label %60

59:                                               ; preds = %57
  store i32 0, ptr %2, align 4
  store i32 1, ptr %5, align 4
  br label %60

60:                                               ; preds = %59, %58, %55, %23
  call void @llvm.lifetime.end.p0(i64 8, ptr %4) #4
  %61 = load i32, ptr %2, align 4
  ret i32 %61
}