; Function Attrs: cold mustprogress nofree norecurse nosync nounwind optsize willreturn memory(write, argmem: readwrite, inaccessiblemem: none) uwtable
define internal range(i32 -1094995529, 1) i32 @bitpacked_init_decoder(ptr noundef readonly captures(none) %0) #0 {
  %2 = getelementptr inbounds nuw i8, ptr %0, i64 32
  %3 = load ptr, ptr %2, align 8, !tbaa !4
  %4 = getelementptr inbounds nuw i8, ptr %0, i64 28
  %5 = load i32, ptr %4, align 4, !tbaa !27
  %.not = icmp eq i32 %5, 0
  br i1 %.not, label %.thread, label %6

6:                                                ; preds = %1
  %7 = getelementptr inbounds nuw i8, ptr %0, i64 112
  %8 = load i32, ptr %7, align 8, !tbaa !28
  %.not12 = icmp eq i32 %8, 0
  br i1 %.not12, label %.thread, label %9

9:                                                ; preds = %6
  %10 = getelementptr inbounds nuw i8, ptr %0, i64 116
  %11 = load i32, ptr %10, align 4, !tbaa !29
  %.not13 = icmp ne i32 %11, 0
  %12 = icmp eq i32 %5, 1498831189
  %or.cond = and i1 %12, %.not13
  br i1 %or.cond, label %13, label %.thread

13:                                               ; preds = %9
  %14 = getelementptr inbounds nuw i8, ptr %0, i64 648
  %15 = load i32, ptr %14, align 8, !tbaa !30
  switch i32 %15, label %.thread [
    i32 16, label %16
    i32 20, label %20
  ]

16:                                               ; preds = %13
  %17 = getelementptr inbounds nuw i8, ptr %0, i64 136
  %18 = load i32, ptr %17, align 8, !tbaa !31
  %19 = icmp eq i32 %18, 15
  br i1 %19, label %24, label %.thread

20:                                               ; preds = %13
  %21 = getelementptr inbounds nuw i8, ptr %0, i64 136
  %22 = load i32, ptr %21, align 8, !tbaa !31
  %23 = icmp eq i32 %22, 64
  br i1 %23, label %24, label %.thread

24:                                               ; preds = %20, %16
  %storemerge = phi ptr [ @bitpacked_decode_uyvy422, %16 ], [ @bitpacked_decode_yuv422p10, %20 ]
  store ptr %storemerge, ptr %3, align 8, !tbaa !32
  br label %.thread

.thread:                                          ; preds = %13, %16, %20, %1, %6, %9, %24
  %.0 = phi i32 [ 0, %24 ], [ -1094995529, %9 ], [ -1094995529, %6 ], [ -1094995529, %1 ], [ -1094995529, %20 ], [ -1094995529, %16 ], [ -1094995529, %13 ]
  ret i32 %.0
}